target datalayout = "e-m:e-p270:32:32-p271:32:32-p272:64:64-i64:64-i128:128-f80:128-n8:16:32:64-S128"
target triple = "x86_64-pc-linux-gnu"

%struct._lv_freetype_image_cache_data_t = type { i32, i32, ptr }
%struct._lv_freetype_font_dsc_t = type { i32, %struct._lv_font_t, i32, i32, i32, ptr, ptr, ptr, ptr }
%struct._lv_font_t = type { ptr, ptr, ptr, i32, i32, i8, i8, i8, ptr, ptr, ptr }
%struct._lv_freetype_cache_node_t = type { ptr, i32, i32, i32, ptr, i32, ptr, ptr }
%struct.lv_font_glyph_dsc_t = type { ptr, i16, i16, i16, i16, i16, i32, i8, %union.anon, ptr }
%union.anon = type { ptr }

; Function Attrs: nounwind uwtable
define internal ptr @freetype_get_glyph_bitmap_cb(ptr noundef %0, ptr noundef %1) #0 {
  %3 = alloca ptr, align 8
  %4 = alloca ptr, align 8
  %5 = alloca ptr, align 8
  %6 = alloca ptr, align 8
  %7 = alloca i32, align 4
  %8 = alloca ptr, align 8
  %9 = alloca %struct._lv_freetype_image_cache_data_t, align 8
  %10 = alloca ptr, align 8
  %11 = alloca ptr, align 8
  store ptr %0, ptr %3, align 8, !tbaa !7
  store ptr %1, ptr %4, align 8, !tbaa !7
  call void @llvm.lifetime.start.p0(i64 8, ptr %5) #4
  %12 = load ptr, ptr %3, align 8, !tbaa !7
  %13 = getelementptr inbounds nuw %struct.lv_font_glyph_dsc_t, ptr %12, i32 0, i32 0
  %14 = load ptr, ptr %13, align 8, !tbaa !45
  store ptr %14, ptr %5, align 8, !tbaa !7
  call void @llvm.lifetime.start.p0(i64 8, ptr %6) #4
  %15 = load ptr, ptr %5, align 8, !tbaa !7
  %16 = getelementptr inbounds nuw %struct._lv_font_t, ptr %15, i32 0, i32 8
  %17 = load ptr, ptr %16, align 8, !tbaa !47
  store ptr %17, ptr %6, align 8, !tbaa !7
  br label %18

18:                                               ; preds = %2
  br label %19

19:                                               ; preds = %18
  %20 = load ptr, ptr %6, align 8, !tbaa !7
  %21 = icmp ne ptr %20, null
  br i1 %21, label %28, label %22

22:                                               ; preds = %19
  br label %23

23:                                               ; preds = %22
  br label %24

24:                                               ; preds = %23
  br label %25

25:                                               ; preds = %24
  br label %26

26:                                               ; preds = %27, %25
  br label %27

27:                                               ; preds = %26
  br label %26

28:                                               ; preds = %19
  br label %29

29:                                               ; preds = %28
  br label %30

30:                                               ; preds = %29
  br label %31

31:                                               ; preds = %30
  %32 = load ptr, ptr %6, align 8, !tbaa !7
  %33 = getelementptr inbounds nuw %struct._lv_freetype_font_dsc_t, ptr %32, i32 0, i32 0
  %34 = load i32, ptr %33, align 8, !tbaa !42
  %35 = icmp eq i32 %34, 1600079444
  br i1 %35, label %42, label %36

36:                                               ; preds = %31
  br label %37

37:                                               ; preds = %36
  br label %38

38:                                               ; preds = %37
  br label %39

39:                                               ; preds = %38
  br label %40

40:                                               ; preds = %41, %39
  br label %41

41:                                               ; preds = %40
  br label %40

42:                                               ; preds = %31
  br label %43

43:                                               ; preds = %42
  br label %44

44:                                               ; preds = %43
  br label %45

45:                                               ; preds = %44
  br label %46

46:                                               ; preds = %45
  call void @llvm.lifetime.start.p0(i64 4, ptr %7) #4
  %47 = load ptr, ptr %3, align 8, !tbaa !7
  %48 = getelementptr inbounds nuw %struct.lv_font_glyph_dsc_t, ptr %47, i32 0, i32 8
  %49 = load i32, ptr %48, align 8, !tbaa !48
  store i32 %49, ptr %7, align 4, !tbaa !3
  call void @llvm.lifetime.start.p0(i64 8, ptr %8) #4
  %50 = load ptr, ptr %6, align 8, !tbaa !7
  %51 = getelementptr inbounds nuw %struct._lv_freetype_font_dsc_t, ptr %50, i32 0, i32 6
  %52 = load ptr, ptr %51, align 8, !tbaa !12
  %53 = getelementptr inbounds nuw %struct._lv_freetype_cache_node_t, ptr %52, i32 0, i32 7
  %54 = load ptr, ptr %53, align 8, !tbaa !49
  store ptr %54, ptr %8, align 8, !tbaa !7
  call void @llvm.lifetime.start.p0(i64 16, ptr %9) #4
  %55 = getelementptr inbounds nuw %struct._lv_freetype_image_cache_data_t, ptr %9, i32 0, i32 0
  %56 = load i32, ptr %7, align 4, !tbaa !3
  store i32 %56, ptr %55, align 8, !tbaa !9
  %57 = getelementptr inbounds nuw %struct._lv_freetype_image_cache_data_t, ptr %9, i32 0, i32 1
  %58 = load ptr, ptr %6, align 8, !tbaa !7
  %59 = getelementptr inbounds nuw %struct._lv_freetype_font_dsc_t, ptr %58, i32 0, i32 2
  %60 = load i32, ptr %59, align 8, !tbaa !24
  store i32 %60, ptr %57, align 4, !tbaa !11
  %61 = getelementptr inbounds nuw %struct._lv_freetype_image_cache_data_t, ptr %9, i32 0, i32 2
  store ptr null, ptr %61, align 8, !tbaa !35
  call void @llvm.lifetime.start.p0(i64 8, ptr %10) #4
  %62 = load ptr, ptr %8, align 8, !tbaa !7
  %63 = load ptr, ptr %6, align 8, !tbaa !7
  %64 = call ptr @lv_cache_acquire_or_create(ptr noundef %62, ptr noundef %9, ptr noundef %63)
  store ptr %64, ptr %10, align 8, !tbaa !7
  %65 = load ptr, ptr %10, align 8, !tbaa !7
  %66 = load ptr, ptr %3, align 8, !tbaa !7
  %67 = getelementptr inbounds nuw %struct.lv_font_glyph_dsc_t, ptr %66, i32 0, i32 9
  store ptr %65, ptr %67, align 8, !tbaa !50
  call void @llvm.lifetime.start.p0(i64 8, ptr %11) #4
  %68 = load ptr, ptr %10, align 8, !tbaa !7
  %69 = call ptr @lv_cache_entry_get_data(ptr noundef %68)
  store ptr %69, ptr %11, align 8, !tbaa !7
  %70 = load ptr, ptr %11, align 8, !tbaa !7
  %71 = getelementptr inbounds nuw %struct._lv_freetype_image_cache_data_t, ptr %70, i32 0, i32 2
  %72 = load ptr, ptr %71, align 8, !tbaa !35
  call void @llvm.lifetime.end.p0(i64 8, ptr %11) #4
  call void @llvm.lifetime.end.p0(i64 8, ptr %10) #4
  call void @llvm.lifetime.end.p0(i64 16, ptr %9) #4
  call void @llvm.lifetime.end.p0(i64 8, ptr %8) #4
  call void @llvm.lifetime.end.p0(i64 4, ptr %7) #4
  call void @llvm.lifetime.end.p0(i64 8, ptr %6) #4
  call void @llvm.lifetime.end.p0(i64 8, ptr %5) #4
  ret ptr %72
}