; Function Attrs: nounwind uwtable
define internal ptr @freetype_get_glyph_bitmap_cb(ptr nocapture noundef %0, ptr nocapture readnone %1) #0 {
  %3 = alloca %struct._lv_freetype_image_cache_data_t, align 8
  %4 = load ptr, ptr %0, align 8, !tbaa !43
  %5 = getelementptr inbounds nuw i8, ptr %4, i64 40
  %6 = load ptr, ptr %5, align 8, !tbaa !45
  %.not = icmp eq ptr %6, null
  br i1 %.not, label %.preheader, label %7

.preheader:                                       ; preds = %2, %.preheader
  br label %.preheader

7:                                                ; preds = %2
  %8 = load i32, ptr %6, align 8, !tbaa !40
  %9 = icmp eq i32 %8, 1600079444
  br i1 %9, label %10, label %.preheader13

.preheader13:                                     ; preds = %7, %.preheader13
  br label %.preheader13

10:                                               ; preds = %7
  %11 = getelementptr inbounds nuw i8, ptr %0, i64 32
  %12 = load i32, ptr %11, align 8, !tbaa !46
  %13 = getelementptr inbounds nuw i8, ptr %6, i64 96
  %14 = load ptr, ptr %13, align 8, !tbaa !10
  %15 = getelementptr inbounds nuw i8, ptr %14, i64 48
  %16 = load ptr, ptr %15, align 8, !tbaa !47
  call void @llvm.lifetime.start.p0(i64 16, ptr nonnull %3) #5
  store i32 %12, ptr %3, align 8, !tbaa !3
  %17 = getelementptr inbounds nuw i8, ptr %3, i64 4
  %18 = getelementptr inbounds nuw i8, ptr %6, i64 72
  %19 = load i32, ptr %18, align 8, !tbaa !22
  store i32 %19, ptr %17, align 4, !tbaa !9
  %20 = getelementptr inbounds nuw i8, ptr %3, i64 8
  store ptr null, ptr %20, align 8, !tbaa !33
  %21 = call ptr @lv_cache_acquire_or_create(ptr noundef %16, ptr noundef nonnull %3, ptr noundef nonnull %6) #5
  %22 = getelementptr inbounds nuw i8, ptr %0, i64 40
  store ptr %21, ptr %22, align 8, !tbaa !48
  %23 = call ptr @lv_cache_entry_get_data(ptr noundef %21) #5
  %24 = getelementptr inbounds nuw i8, ptr %23, i64 8
  %25 = load ptr, ptr %24, align 8, !tbaa !33
  call void @llvm.lifetime.end.p0(i64 16, ptr nonnull %3) #5
  ret ptr %25
}